; Function Attrs: nounwind sspstrong uwtable
define internal noundef i64 @ossl_pkcs7_add_crl(i64 noundef returned %0, i64 noundef %1) #0 {
  %3 = tail call ptr @rb_check_typeddata(i64 noundef %0, ptr noundef nonnull @ossl_pkcs7_type) #5
  %.not = icmp eq ptr %3, null
  br i1 %.not, label %4, label %6

4:                                                ; preds = %2
  %5 = load i64, ptr @rb_eRuntimeError, align 8, !tbaa !6
  tail call void (i64, ptr, ...) @ossl_raise(i64 noundef %5, ptr noundef nonnull @.str.1) #6
  unreachable

6:                                                ; preds = %2
  %7 = tail call ptr @GetX509CRLPtr(i64 noundef %1) #5
  %8 = tail call i32 @PKCS7_add_crl(ptr noundef nonnull %3, ptr noundef %7) #5
  %.not5 = icmp eq i32 %8, 0
  br i1 %.not5, label %9, label %11

9:                                                ; preds = %6
  %10 = load i64, ptr @ePKCS7Error, align 8, !tbaa !6
  tail call void (i64, ptr, ...) @ossl_raise(i64 noundef %10, ptr noundef null) #6
  unreachable

11:                                               ; preds = %6
  ret i64 %0
}